target datalayout = "e-m:e-p270:32:32-p271:32:32-p272:64:64-i64:64-i128:128-f80:128-n8:16:32:64-S128"
target triple = "x86_64-unknown-linux-gnu"

%"class.std::allocator" = type { i8 }
%"class.snappy::internal::WorkingMemory" = type { ptr, i64, ptr, ptr, ptr }

@_ZN6snappyL10kBlockSizeE = internal constant i64 65536, align 8

; Function Attrs: mustprogress nounwind uwtable
define linkonce_odr dso_local noundef i32 @_ZN6snappy4Bits16Log2FloorNonZeroEj(i32 noundef %n) #0 comdat align 2 {
entry:
  %n.addr = alloca i32, align 4
  store i32 %n, ptr %n.addr, align 4
  %0 = load i32, ptr %n.addr, align 4
  %1 = call i32 @llvm.ctlz.i32(i32 %0, i1 true)
  %xor = xor i32 31, %1
  ret i32 %xor
}

; Function Attrs: mustprogress nounwind uwtable
define linkonce_odr dso_local noundef i64 @_ZNKSt15__new_allocatorIcE11_M_max_sizeEv(ptr noundef nonnull align 1 dereferenceable(1) %this) #0 comdat align 2 {
entry:
  %this.addr = alloca ptr, align 8
  store ptr %this, ptr %this.addr, align 8
  ret i64 9223372036854775807
}

; Function Attrs: mustprogress nounwind uwtable
define linkonce_odr dso_local noundef i32 @_ZN6snappy4Bits9Log2FloorEj(i32 noundef %n) #0 comdat align 2 {
entry:
  %n.addr = alloca i32, align 4
  store i32 %n, ptr %n.addr, align 4
  %0 = load i32, ptr %n.addr, align 4
  %cmp = icmp eq i32 %0, 0
  br i1 %cmp, label %cond.true, label %cond.false

cond.true:                                        ; preds = %entry
  br label %cond.end

cond.false:                                       ; preds = %entry
  %1 = load i32, ptr %n.addr, align 4
  %call = call noundef i32 @_ZN6snappy4Bits16Log2FloorNonZeroEj(i32 noundef %1)
  br label %cond.end

cond.end:                                         ; preds = %cond.false, %cond.true
  %cond = phi i32 [ -1, %cond.true ], [ %call, %cond.false ]
  ret i32 %cond
}

; Function Attrs: mustprogress nounwind uwtable
define linkonce_odr dso_local noundef ptr @_ZNSt15__new_allocatorIcE8allocateEmPKv(ptr noundef nonnull align 1 dereferenceable(1) %this, i64 noundef %__n, ptr noundef %0) #0 comdat align 2 {
entry:
  %this.addr = alloca ptr, align 8
  %__n.addr = alloca i64, align 8
  %.addr = alloca ptr, align 8
  store ptr %this, ptr %this.addr, align 8
  store i64 %__n, ptr %__n.addr, align 8
  store ptr %0, ptr %.addr, align 8
  %this1 = load ptr, ptr %this.addr, align 8
  %1 = load i64, ptr %__n.addr, align 8
  %call = call noundef i64 @_ZNKSt15__new_allocatorIcE11_M_max_sizeEv(ptr noundef nonnull align 1 dereferenceable(1) %this1) #11
  %cmp = icmp ugt i64 %1, %call
  br i1 %cmp, label %if.then, label %if.end4

if.then:                                          ; preds = %entry
  %2 = load i64, ptr %__n.addr, align 8
  %cmp2 = icmp ugt i64 %2, -1
  br i1 %cmp2, label %if.then3, label %if.end

if.then3:                                         ; preds = %if.then
  call void @_ZSt28__throw_bad_array_new_lengthv() #12
  unreachable

if.end:                                           ; preds = %if.then
  call void @_ZSt17__throw_bad_allocv() #12
  unreachable

if.end4:                                          ; preds = %entry
  %3 = load i64, ptr %__n.addr, align 8
  %mul = mul i64 %3, 1
  %call5 = call noalias noundef nonnull ptr @_Znwm(i64 noundef %mul) #13
  ret ptr %call5
}

; Function Attrs: mustprogress nounwind uwtable
define dso_local noundef i64 @_ZN6snappy19MaxCompressedLengthEm(i64 noundef %source_bytes) #0 {
entry:
  %source_bytes.addr = alloca i64, align 8
  store i64 %source_bytes, ptr %source_bytes.addr, align 8
  %0 = load i64, ptr %source_bytes.addr, align 8
  %add = add i64 32, %0
  %1 = load i64, ptr %source_bytes.addr, align 8
  %div = udiv i64 %1, 6
  %add1 = add i64 %add, %div
  ret i64 %add1
}

; Function Attrs: mustprogress nounwind uwtable
define internal noundef i32 @_ZN6snappy12_GLOBAL__N_118CalculateTableSizeEj(i32 noundef %input_size) #0 {
entry:
  %retval = alloca i32, align 4
  %input_size.addr = alloca i32, align 4
  store i32 %input_size, ptr %input_size.addr, align 4
  %0 = load i32, ptr %input_size.addr, align 4
  %conv = zext i32 %0 to i64
  %cmp = icmp ugt i64 %conv, 16384
  br i1 %cmp, label %if.then, label %if.end

if.then:                                          ; preds = %entry
  store i32 16384, ptr %retval, align 4
  br label %return

if.end:                                           ; preds = %entry
  %1 = load i32, ptr %input_size.addr, align 4
  %conv1 = zext i32 %1 to i64
  %cmp2 = icmp ult i64 %conv1, 256
  br i1 %cmp2, label %if.then3, label %if.end4

if.then3:                                         ; preds = %if.end
  store i32 256, ptr %retval, align 4
  br label %return

if.end4:                                          ; preds = %if.end
  %2 = load i32, ptr %input_size.addr, align 4
  %sub = sub i32 %2, 1
  %call = call noundef i32 @_ZN6snappy4Bits9Log2FloorEj(i32 noundef %sub)
  %shl = shl i32 2, %call
  store i32 %shl, ptr %retval, align 4
  br label %return

return:                                           ; preds = %if.end4, %if.then3, %if.then
  %3 = load i32, ptr %retval, align 4
  ret i32 %3
}

; Function Attrs: mustprogress nounwind uwtable
define linkonce_odr dso_local noundef nonnull align 8 dereferenceable(8) ptr @_ZSt3minImERKT_S2_S2_(ptr noundef nonnull align 8 dereferenceable(8) %__a, ptr noundef nonnull align 8 dereferenceable(8) %__b) #0 comdat {
entry:
  %retval = alloca ptr, align 8
  %__a.addr = alloca ptr, align 8
  %__b.addr = alloca ptr, align 8
  store ptr %__a, ptr %__a.addr, align 8
  store ptr %__b, ptr %__b.addr, align 8
  %0 = load ptr, ptr %__b.addr, align 8
  %1 = load i64, ptr %0, align 8
  %2 = load ptr, ptr %__a.addr, align 8
  %3 = load i64, ptr %2, align 8
  %cmp = icmp ult i64 %1, %3
  br i1 %cmp, label %if.then, label %if.end

if.then:                                          ; preds = %entry
  %4 = load ptr, ptr %__b.addr, align 8
  store ptr %4, ptr %retval, align 8
  br label %return

if.end:                                           ; preds = %entry
  %5 = load ptr, ptr %__a.addr, align 8
  store ptr %5, ptr %retval, align 8
  br label %return

return:                                           ; preds = %if.end, %if.then
  %6 = load ptr, ptr %retval, align 8
  ret ptr %6
}

; Function Attrs: mustprogress nounwind uwtable
define dso_local void @_ZN6snappy8internal13WorkingMemoryC2Em(ptr noundef nonnull align 8 dereferenceable(40) %this, i64 noundef %input_size) unnamed_addr #0 align 2 {
entry:
  %this.addr = alloca ptr, align 8
  %input_size.addr = alloca i64, align 8
  %max_fragment_size = alloca i64, align 8
  %table_size = alloca i64, align 8
  %ref.tmp = alloca %"class.std::allocator", align 1
  store ptr %this, ptr %this.addr, align 8
  store i64 %input_size, ptr %input_size.addr, align 8
  %this1 = load ptr, ptr %this.addr, align 8
  %call = call noundef nonnull align 8 dereferenceable(8) ptr @_ZSt3minImERKT_S2_S2_(ptr noundef nonnull align 8 dereferenceable(8) %input_size.addr, ptr noundef nonnull align 8 dereferenceable(8) @_ZN6snappyL10kBlockSizeE)
  %0 = load i64, ptr %call, align 8
  store i64 %0, ptr %max_fragment_size, align 8
  %1 = load i64, ptr %max_fragment_size, align 8
  %conv = trunc i64 %1 to i32
  %call2 = call noundef i32 @_ZN6snappy12_GLOBAL__N_118CalculateTableSizeEj(i32 noundef %conv)
  %conv3 = zext i32 %call2 to i64
  store i64 %conv3, ptr %table_size, align 8
  %2 = load i64, ptr %table_size, align 8
  %mul = mul i64 %2, 2
  %3 = load i64, ptr %max_fragment_size, align 8
  %add = add i64 %mul, %3
  %4 = load i64, ptr %max_fragment_size, align 8
  %call4 = call noundef i64 @_ZN6snappy19MaxCompressedLengthEm(i64 noundef %4)
  %add5 = add i64 %add, %call4
  %size_ = getelementptr inbounds %"class.snappy::internal::WorkingMemory", ptr %this1, i32 0, i32 1
  store i64 %add5, ptr %size_, align 8
  call void @_ZNSaIcEC1Ev(ptr noundef nonnull align 1 dereferenceable(1) %ref.tmp) #11
  %size_6 = getelementptr inbounds %"class.snappy::internal::WorkingMemory", ptr %this1, i32 0, i32 1
  %5 = load i64, ptr %size_6, align 8
  %call7 = call noundef ptr @_ZNSt15__new_allocatorIcE8allocateEmPKv(ptr noundef nonnull align 1 dereferenceable(1) %ref.tmp, i64 noundef %5, ptr noundef null)
  %mem_ = getelementptr inbounds %"class.snappy::internal::WorkingMemory", ptr %this1, i32 0, i32 0
  store ptr %call7, ptr %mem_, align 8
  call void @_ZNSaIcED1Ev(ptr noundef nonnull align 1 dereferenceable(1) %ref.tmp) #11
  %mem_8 = getelementptr inbounds %"class.snappy::internal::WorkingMemory", ptr %this1, i32 0, i32 0
  %6 = load ptr, ptr %mem_8, align 8
  %table_ = getelementptr inbounds %"class.snappy::internal::WorkingMemory", ptr %this1, i32 0, i32 2
  store ptr %6, ptr %table_, align 8
  %mem_9 = getelementptr inbounds %"class.snappy::internal::WorkingMemory", ptr %this1, i32 0, i32 0
  %7 = load ptr, ptr %mem_9, align 8
  %8 = load i64, ptr %table_size, align 8
  %mul10 = mul i64 %8, 2
  %add.ptr = getelementptr inbounds i8, ptr %7, i64 %mul10
  %input_ = getelementptr inbounds %"class.snappy::internal::WorkingMemory", ptr %this1, i32 0, i32 3
  store ptr %add.ptr, ptr %input_, align 8
  %input_11 = getelementptr inbounds %"class.snappy::internal::WorkingMemory", ptr %this1, i32 0, i32 3
  %9 = load ptr, ptr %input_11, align 8
  %10 = load i64, ptr %max_fragment_size, align 8
  %add.ptr12 = getelementptr inbounds i8, ptr %9, i64 %10
  %output_ = getelementptr inbounds %"class.snappy::internal::WorkingMemory", ptr %this1, i32 0, i32 4
  store ptr %add.ptr12, ptr %output_, align 8
  ret void
}