; Function Attrs: mustprogress nounwind uwtable
define dso_local void @_ZN6snappy8internal13WorkingMemoryC2Em(ptr nocapture noundef nonnull align 8 dereferenceable(40) %this, i64 noundef %input_size) unnamed_addr #2 align 2 {
entry:
  %ref.tmp = alloca %"class.std::allocator", align 1
  %.sroa.speculated = tail call i64 @llvm.umin.i64(i64 %input_size, i64 65536)
  %conv = trunc i64 %.sroa.speculated to i32
  %cmp.i5 = icmp ugt i32 %conv, 16384
  br i1 %cmp.i5, label %_ZN6snappy12_GLOBAL__N_118CalculateTableSizeEj.exit, label %if.end.i

if.end.i:                                         ; preds = %entry
  %cmp2.i = icmp ult i32 %conv, 256
  br i1 %cmp2.i, label %_ZN6snappy12_GLOBAL__N_118CalculateTableSizeEj.exit, label %if.end4.i

if.end4.i:                                        ; preds = %if.end.i
  %sub.i = add nsw i32 %conv, -1
  %0 = tail call i32 @llvm.ctlz.i32(i32 %sub.i, i1 true), !range !5
  %xor.i.i.i = xor i32 %0, 31
  %1 = shl nuw nsw i32 4, %xor.i.i.i
  %2 = zext nneg i32 %1 to i64
  br label %_ZN6snappy12_GLOBAL__N_118CalculateTableSizeEj.exit

_ZN6snappy12_GLOBAL__N_118CalculateTableSizeEj.exit: ; preds = %entry, %if.end.i, %if.end4.i
  %retval.0.i = phi i64 [ %2, %if.end4.i ], [ 32768, %entry ], [ 512, %if.end.i ]
  %div.i10 = udiv i32 %conv, 6
  %div.i.zext = zext nneg i32 %div.i10 to i64
  %factor = shl nuw nsw i64 %.sroa.speculated, 1
  %add.i = add nuw nsw i64 %factor, 32
  %add1.i = add nuw nsw i64 %add.i, %div.i.zext
  %add5 = add nuw nsw i64 %add1.i, %retval.0.i
  %size_ = getelementptr inbounds i8, ptr %this, i64 8
  store i64 %add5, ptr %size_, align 8
  call void @_ZNSaIcEC1Ev(ptr noundef nonnull align 1 dereferenceable(1) %ref.tmp) #19
  %3 = load i64, ptr %size_, align 8
  %cmp.i6 = icmp slt i64 %3, 0
  br i1 %cmp.i6, label %if.end.i8, label %_ZNSt15__new_allocatorIcE8allocateEmPKv.exit

if.end.i8:                                        ; preds = %_ZN6snappy12_GLOBAL__N_118CalculateTableSizeEj.exit
  call void @_ZSt17__throw_bad_allocv() #20
  unreachable

_ZNSt15__new_allocatorIcE8allocateEmPKv.exit:     ; preds = %_ZN6snappy12_GLOBAL__N_118CalculateTableSizeEj.exit
  %call5.i = call noalias noundef nonnull ptr @_Znwm(i64 noundef %3) #21
  store ptr %call5.i, ptr %this, align 8
  call void @_ZNSaIcED1Ev(ptr noundef nonnull align 1 dereferenceable(1) %ref.tmp) #19
  %4 = load ptr, ptr %this, align 8
  %table_ = getelementptr inbounds i8, ptr %this, i64 16
  store ptr %4, ptr %table_, align 8
  %add.ptr = getelementptr inbounds i8, ptr %4, i64 %retval.0.i
  %input_ = getelementptr inbounds i8, ptr %this, i64 24
  store ptr %add.ptr, ptr %input_, align 8
  %add.ptr12 = getelementptr inbounds i8, ptr %add.ptr, i64 %.sroa.speculated
  %output_ = getelementptr inbounds i8, ptr %this, i64 32
  store ptr %add.ptr12, ptr %output_, align 8
  ret void
}